; Function Attrs: nounwind uwtable
define noalias ptr @l_Array_forIn_x27Unsafe_loop___at_Lean_Core_wrapAsyncAsSnapshot___spec__11___boxed(ptr noundef %0, ptr noundef %1, ptr noundef %2, ptr noundef %3, ptr noundef %4, ptr noundef %5, ptr noundef %6, ptr noundef %7, ptr noundef %8, ptr noundef %9, ptr noundef %10, ptr noundef %11, ptr noundef %12) local_unnamed_addr #1 {
  %14 = getelementptr i8, ptr %7, i64 8
  %.val48 = load i64, ptr %14, align 8, !tbaa !12
  %15 = ptrtoint ptr %7 to i64
  %16 = and i64 %15, 1
  %.not = icmp eq i64 %16, 0
  br i1 %.not, label %17, label %lean_dec.exit31

17:                                               ; preds = %13
  %18 = load i32, ptr %7, align 4, !tbaa !4
  %19 = icmp sgt i32 %18, 1
  br i1 %19, label %20, label %22, !prof !11

20:                                               ; preds = %17
  %21 = add nsw i32 %18, -1
  store i32 %21, ptr %7, align 4, !tbaa !4
  br label %lean_dec.exit31

22:                                               ; preds = %17
  %.not.i = icmp eq i32 %18, 0
  br i1 %.not.i, label %lean_dec.exit31, label %23

23:                                               ; preds = %22
  tail call void @lean_dec_ref_cold(ptr noundef nonnull %7) #7
  br label %lean_dec.exit31

lean_dec.exit31:                                  ; preds = %23, %22, %20, %13
  %24 = getelementptr i8, ptr %8, i64 8
  %.val = load i64, ptr %24, align 8, !tbaa !12
  %25 = ptrtoint ptr %8 to i64
  %26 = and i64 %25, 1
  %.not49 = icmp eq i64 %26, 0
  br i1 %.not49, label %27, label %lean_dec.exit30

27:                                               ; preds = %lean_dec.exit31
  %28 = load i32, ptr %8, align 4, !tbaa !4
  %29 = icmp sgt i32 %28, 1
  br i1 %29, label %30, label %32, !prof !11

30:                                               ; preds = %27
  %31 = add nsw i32 %28, -1
  store i32 %31, ptr %8, align 4, !tbaa !4
  br label %lean_dec.exit30

32:                                               ; preds = %27
  %.not.i32 = icmp eq i32 %28, 0
  br i1 %.not.i32, label %lean_dec.exit30, label %33

33:                                               ; preds = %32
  tail call void @lean_dec_ref_cold(ptr noundef nonnull %8) #7
  br label %lean_dec.exit30

lean_dec.exit30:                                  ; preds = %33, %32, %30, %lean_dec.exit31
  %34 = tail call ptr @l_Array_forIn_x27Unsafe_loop___at_Lean_Core_wrapAsyncAsSnapshot___spec__11(ptr poison, ptr poison, ptr noundef %2, ptr poison, ptr poison, ptr noundef %5, ptr noundef %6, i64 noundef %.val48, i64 noundef %.val, ptr noundef %9, ptr noundef %10, ptr poison, ptr noundef %12)
  %35 = ptrtoint ptr %11 to i64
  %36 = and i64 %35, 1
  %.not50 = icmp eq i64 %36, 0
  br i1 %.not50, label %37, label %lean_dec.exit29

37:                                               ; preds = %lean_dec.exit30
  %38 = load i32, ptr %11, align 4, !tbaa !4
  %39 = icmp sgt i32 %38, 1
  br i1 %39, label %40, label %42, !prof !11

40:                                               ; preds = %37
  %41 = add nsw i32 %38, -1
  store i32 %41, ptr %11, align 4, !tbaa !4
  br label %lean_dec.exit29

42:                                               ; preds = %37
  %.not.i34 = icmp eq i32 %38, 0
  br i1 %.not.i34, label %lean_dec.exit29, label %43

43:                                               ; preds = %42
  tail call void @lean_dec_ref_cold(ptr noundef nonnull %11) #7
  br label %lean_dec.exit29

lean_dec.exit29:                                  ; preds = %43, %42, %40, %lean_dec.exit30
  %44 = ptrtoint ptr %10 to i64
  %45 = and i64 %44, 1
  %.not51 = icmp eq i64 %45, 0
  br i1 %.not51, label %46, label %lean_dec.exit28

46:                                               ; preds = %lean_dec.exit29
  %47 = load i32, ptr %10, align 4, !tbaa !4
  %48 = icmp sgt i32 %47, 1
  br i1 %48, label %49, label %51, !prof !11

49:                                               ; preds = %46
  %50 = add nsw i32 %47, -1
  store i32 %50, ptr %10, align 4, !tbaa !4
  br label %lean_dec.exit28

51:                                               ; preds = %46
  %.not.i36 = icmp eq i32 %47, 0
  br i1 %.not.i36, label %lean_dec.exit28, label %52

52:                                               ; preds = %51
  tail call void @lean_dec_ref_cold(ptr noundef nonnull %10) #7
  br label %lean_dec.exit28

lean_dec.exit28:                                  ; preds = %52, %51, %49, %lean_dec.exit29
  %53 = ptrtoint ptr %6 to i64
  %54 = and i64 %53, 1
  %.not52 = icmp eq i64 %54, 0
  br i1 %.not52, label %55, label %lean_dec.exit27

55:                                               ; preds = %lean_dec.exit28
  %56 = load i32, ptr %6, align 4, !tbaa !4
  %57 = icmp sgt i32 %56, 1
  br i1 %57, label %58, label %60, !prof !11

58:                                               ; preds = %55
  %59 = add nsw i32 %56, -1
  store i32 %59, ptr %6, align 4, !tbaa !4
  br label %lean_dec.exit27

60:                                               ; preds = %55
  %.not.i38 = icmp eq i32 %56, 0
  br i1 %.not.i38, label %lean_dec.exit27, label %61

61:                                               ; preds = %60
  tail call void @lean_dec_ref_cold(ptr noundef nonnull %6) #7
  br label %lean_dec.exit27

lean_dec.exit27:                                  ; preds = %61, %60, %58, %lean_dec.exit28
  %62 = ptrtoint ptr %4 to i64
  %63 = and i64 %62, 1
  %.not53 = icmp eq i64 %63, 0
  br i1 %.not53, label %64, label %lean_dec.exit26

64:                                               ; preds = %lean_dec.exit27
  %65 = load i32, ptr %4, align 4, !tbaa !4
  %66 = icmp sgt i32 %65, 1
  br i1 %66, label %67, label %69, !prof !11

67:                                               ; preds = %64
  %68 = add nsw i32 %65, -1
  store i32 %68, ptr %4, align 4, !tbaa !4
  br label %lean_dec.exit26

69:                                               ; preds = %64
  %.not.i40 = icmp eq i32 %65, 0
  br i1 %.not.i40, label %lean_dec.exit26, label %70

70:                                               ; preds = %69
  tail call void @lean_dec_ref_cold(ptr noundef nonnull %4) #7
  br label %lean_dec.exit26

lean_dec.exit26:                                  ; preds = %70, %69, %67, %lean_dec.exit27
  %71 = ptrtoint ptr %3 to i64
  %72 = and i64 %71, 1
  %.not54 = icmp eq i64 %72, 0
  br i1 %.not54, label %73, label %lean_dec.exit25

73:                                               ; preds = %lean_dec.exit26
  %74 = load i32, ptr %3, align 4, !tbaa !4
  %75 = icmp sgt i32 %74, 1
  br i1 %75, label %76, label %78, !prof !11

76:                                               ; preds = %73
  %77 = add nsw i32 %74, -1
  store i32 %77, ptr %3, align 4, !tbaa !4
  br label %lean_dec.exit25

78:                                               ; preds = %73
  %.not.i42 = icmp eq i32 %74, 0
  br i1 %.not.i42, label %lean_dec.exit25, label %79

79:                                               ; preds = %78
  tail call void @lean_dec_ref_cold(ptr noundef nonnull %3) #7
  br label %lean_dec.exit25

lean_dec.exit25:                                  ; preds = %79, %78, %76, %lean_dec.exit26
  %80 = ptrtoint ptr %1 to i64
  %81 = and i64 %80, 1
  %.not55 = icmp eq i64 %81, 0
  br i1 %.not55, label %82, label %lean_dec.exit24

82:                                               ; preds = %lean_dec.exit25
  %83 = load i32, ptr %1, align 4, !tbaa !4
  %84 = icmp sgt i32 %83, 1
  br i1 %84, label %85, label %87, !prof !11

85:                                               ; preds = %82
  %86 = add nsw i32 %83, -1
  store i32 %86, ptr %1, align 4, !tbaa !4
  br label %lean_dec.exit24

87:                                               ; preds = %82
  %.not.i44 = icmp eq i32 %83, 0
  br i1 %.not.i44, label %lean_dec.exit24, label %88

88:                                               ; preds = %87
  tail call void @lean_dec_ref_cold(ptr noundef nonnull %1) #7
  br label %lean_dec.exit24

lean_dec.exit24:                                  ; preds = %88, %87, %85, %lean_dec.exit25
  %89 = ptrtoint ptr %0 to i64
  %90 = and i64 %89, 1
  %.not56 = icmp eq i64 %90, 0
  br i1 %.not56, label %91, label %lean_dec.exit

91:                                               ; preds = %lean_dec.exit24
  %92 = load i32, ptr %0, align 4, !tbaa !4
  %93 = icmp sgt i32 %92, 1
  br i1 %93, label %94, label %96, !prof !11

94:                                               ; preds = %91
  %95 = add nsw i32 %92, -1
  store i32 %95, ptr %0, align 4, !tbaa !4
  br label %lean_dec.exit

96:                                               ; preds = %91
  %.not.i46 = icmp eq i32 %92, 0
  br i1 %.not.i46, label %lean_dec.exit, label %97

97:                                               ; preds = %96
  tail call void @lean_dec_ref_cold(ptr noundef nonnull %0) #7
  br label %lean_dec.exit

lean_dec.exit:                                    ; preds = %97, %96, %94, %lean_dec.exit24
  ret ptr %34
}